******************************************************************************
                  TI ARM Linker Unix v18.12.3                  
******************************************************************************
>> Linked Sun Jan 26 20:15:27 2020

OUTPUT FILE NAME:   <embssystems_practice.out>
ENTRY POINT SYMBOL: "_c_int00_noargs"  address: 00003361


MEMORY CONFIGURATION

         name            origin    length      used     unused   attr    fill
----------------------  --------  ---------  --------  --------  ----  --------
  FLASH                 00000000   00040000  000039b8  0003c648  R  X
  SRAM                  20000000   00008000  00000606  000079fa  RW X


SEGMENT ALLOCATION MAP

run origin  load origin   length   init length attrs members
----------  ----------- ---------- ----------- ----- -------
00000000    00000000    000039b8   000039b8    r-x
  00000000    00000000    0000026c   0000026c    r-- .intvecs
  0000026c    0000026c    000033a0   000033a0    r-x .text
  0000360c    0000360c    0000031c   0000031c    r-- .const
  00003928    00003928    00000090   00000090    r-- .cinit
20000000    20000000    00000608   00000000    rw-
  20000000    20000000    00000218   00000000    rw- .data
  20000218    20000218    00000200   00000000    rw- .stack
  20000418    20000418    000001de   00000000    rw- .bss
  200005f8    200005f8    00000010   00000000    rw- .sysmem


SECTION ALLOCATION MAP

 output                                  attributes/
section   page    origin      length       input sections
--------  ----  ----------  ----------   ----------------
.intvecs   0    00000000    0000026c     
                  00000000    0000026c     tm4c123gh6pm_startup_ccs.obj (.intvecs)

.text      0    0000026c    000033a0     
                  0000026c    00000a4e     rtsv7M4_T_le_v4SPD16_eabi.lib : _printfi.c.obj (.text:__TI_printfi)
                  00000cba    00000002                                   : _lock.c.obj (.text:_nop)
                  00000cbc    0000048c     sys_init.obj (.text)
                  00001148    000002a4     i2c.obj (.text)
                  000013ec    00000270     rtsv7M4_T_le_v4SPD16_eabi.lib : _printfi.c.obj (.text:_pconv_a)
                  0000165c    000001d0                                   : _printfi.c.obj (.text:_pconv_g)
                  0000182c    000001b6                                   : fd_add_t2.asm.obj (.text)
                  000019e2    00000002                                   : div0.asm.obj (.text)
                  000019e4    00000184     os.obj (.text)
                  00001b68    0000013c     rtsv7M4_T_le_v4SPD16_eabi.lib : _printfi.c.obj (.text:_pconv_e)
                  00001ca4    00000136                                   : fd_div_t2.asm.obj (.text)
                  00001dda    00000002     --HOLE-- [fill = 0]
                  00001ddc    00000124                                   : _printfi.c.obj (.text:fcvt)
                  00001f00    00000114                                   : fputs.c.obj (.text:fputs)
                  00002014    00000110                                   : s_scalbn.c.obj (.text:scalbn)
                  00002124    000000fc                                   : fd_mul_t2.asm.obj (.text)
                  00002220    000000f4                                   : memory.c.obj (.text:aligned_alloc)
                  00002314    000000e8                                   : memory.c.obj (.text:free)
                  000023fc    000000dc                                   : setvbuf.c.obj (.text:setvbuf)
                  000024d8    000000b1                                   : _printfi.c.obj (.text:_ltostr)
                  00002589    00000001     --HOLE-- [fill = 0]
                  0000258a    0000009c                                   : memcpy_t2.asm.obj (.text)
                  00002626    00000096                                   : ull_div_t2.asm.obj (.text)
                  000026bc    0000008c                                   : fputc.c.obj (.text:fputc)
                  00002748    00000086                                   : fd_cmp_t2.asm.obj (.text:__aeabi_cdcmple)
                  000027ce    00000086                                   : fd_cmp_t2.asm.obj (.text:__aeabi_cdrcmple)
                  00002854    0000007c                                   : memory.c.obj (.text:split)
                  000028d0    0000007a                                   : memset_t2.asm.obj (.text)
                  0000294a    00000002     --HOLE-- [fill = 0]
                  0000294c    00000074                                   : fclose.c.obj (.text:__TI_closefile)
                  000029c0    0000006e                                   : _printfi.c.obj (.text:_mcpy)
                  00002a2e    00000002     --HOLE-- [fill = 0]
                  00002a30    0000006c                                   : hostrename.c.obj (.text:HOSTrename)
                  00002a9c    0000006c     pwm_timer_lib.obj (.text)
                  00002b08    00000068     rtsv7M4_T_le_v4SPD16_eabi.lib : hostlseek.c.obj (.text:HOSTlseek)
                  00002b70    00000068                                   : copy_decompress_lzss.c.obj (.text:decompress:lzss:__TI_decompress_lzss)
                  00002bd8    00000068                                   : printf.c.obj (.text:printf)
                  00002c40    00000064                                   : s_frexp.c.obj (.text:frexp)
                  00002ca4    00000064                                   : fseek.c.obj (.text:fseek)
                  00002d08    00000062                                   : _io_perm.c.obj (.text:__TI_wrt_ok)
                  00002d6a    00000002     --HOLE-- [fill = 0]
                  00002d6c    00000060                                   : hostopen.c.obj (.text:HOSTopen)
                  00002dcc    0000005c                                   : close.c.obj (.text:close)
                  00002e28    00000058                                   : hostread.c.obj (.text:HOSTread)
                  00002e80    00000058                                   : hostwrite.c.obj (.text:HOSTwrite)
                  00002ed8    00000056                                   : _printfi.c.obj (.text:_pconv_f)
                  00002f2e    00000054                                   : ltoa.c.obj (.text:ltoa)
                  00002f82    00000052                                   : _printfi.c.obj (.text:_ecpy)
                  00002fd4    0000004c                                   : fflush.c.obj (.text:__TI_doflush)
                  00003020    0000004c                                   : atoi.c.obj (.text:atoi)
                  0000306c    00000048                                   : exit.c.obj (.text:exit)
                  000030b4    00000048                                   : fd_toi_t2.asm.obj (.text)
                  000030fc    00000044                                   : hostclose.c.obj (.text:HOSTclose)
                  00003140    00000044                                   : hostunlink.c.obj (.text:HOSTunlink)
                  00003184    00000044                                   : autoinit.c.obj (.text:__TI_auto_init_nobinit_nopinit:__TI_auto_init_nobinit_nopinit)
                  000031c8    00000044                                   : getdevice.c.obj (.text:getdevice)
                  0000320c    0000003e                                   : _printfi.c.obj (.text:_fcpy)
                  0000324a    00000002     --HOLE-- [fill = 0]
                  0000324c    0000003c     main.obj (.text:os_tick_reset)
                  00003288    00000038     rtsv7M4_T_le_v4SPD16_eabi.lib : trgmsg.c.obj (.text:__TI_writemsg)
                  000032c0    00000036                                   : strncpy.c.obj (.text:strncpy)
                  000032f6    00000002     --HOLE-- [fill = 0]
                  000032f8    00000034                                   : fopen.c.obj (.text:__TI_cleanup)
                  0000332c    00000034                                   : trgmsg.c.obj (.text:__TI_readmsg)
                  00003360    00000034                                   : boot_cortex_m.c.obj (.text:_c_int00_noargs:_c_int00_noargs)
                  00003394    00000030                                   : getdevice.c.obj (.text:finddevice)
                  000033c4    0000002e                                   : i_tofd_t2.asm.obj (.text)
                  000033f2    00000002     --HOLE-- [fill = 0]
                  000033f4    0000002c                                   : unlink.c.obj (.text:unlink)
                  00003420    00000028                                   : memory.c.obj (.text:free_list_insert)
                  00003448    00000028                                   : lseek.c.obj (.text:lseek)
                  00003470    00000028                                   : write.c.obj (.text:write)
                  00003498    00000026     exception_handlers.obj (.text)
                  000034be    00000020     rtsv7M4_T_le_v4SPD16_eabi.lib : memchr.c.obj (.text:memchr)
                  000034de    0000001c                                   : copy_zero_init.c.obj (.text:decompress:ZI:__TI_zero_init_nomemset:__TI_zero_init_nomemset)
                  000034fa    00000002     --HOLE-- [fill = 0]
                  000034fc    0000001c                                   : memory.c.obj (.text:free_list_remove)
                  00003518    0000001c                                   : memccpy.c.obj (.text:memccpy)
                  00003534    0000001a                                   : s_copysign.c.obj (.text:copysign)
                  0000354e    00000018                                   : strcmp.c.obj (.text:strcmp)
                  00003566    00000016                                   : strchr.c.obj (.text:strchr)
                  0000357c    00000014                                   : strcpy.c.obj (.text:strcpy)
                  00003590    00000014                                   : strlen.c.obj (.text:strlen)
                  000035a4    00000012                                   : wcslen.c.obj (.text:wcslen)
                  000035b6    0000000e     i2c.obj (.text:calculate_MTPR)
                  000035c4    0000000e     rtsv7M4_T_le_v4SPD16_eabi.lib : copy_decompress_none.c.obj (.text:decompress:none:__TI_decompress_none)
                  000035d2    0000000e     main.obj (.text)
                  000035e0    0000000c     tm4c123gh6pm_startup_ccs.obj (.text)
                  000035ec    00000008     rtsv7M4_T_le_v4SPD16_eabi.lib : errno.c.obj (.text:__aeabi_errno_addr)
                  000035f4    00000008                                   : memory.c.obj (.text:malloc)
                  000035fc    00000004                                   : printf.c.obj (.text:_outc)
                  00003600    00000004                                   : printf.c.obj (.text:_outs)
                  00003604    00000004                                   : pre_init.c.obj (.text:_system_pre_init)
                  00003608    00000004                                   : exit.c.obj (.text:abort:abort)

.const     0    0000360c    0000031c     
                  0000360c    00000172     constdata_gpioconfig.obj (.const:gpio_pin_spec)
                  0000377e    00000101     rtsv7M4_T_le_v4SPD16_eabi.lib : ctype.c.obj (.const:.string:_ctypes_)
                  0000387f    00000001     --HOLE-- [fill = 0]
                  00003880    00000080     i2c.obj (.const:tbl)
                  00003900    00000028     os.obj (.const:sch1)

.cinit     0    00003928    00000090     
                  00003928    0000006c     (.cinit..data.load) [load image, compression = lzss]
                  00003994    0000000c     (__TI_handler_table)
                  000039a0    00000008     (.cinit..bss.load) [load image, compression = zero_init]
                  000039a8    00000010     (__TI_cinit_table)

.init_array 
*          0    00000000    00000000     UNINITIALIZED

.data      0    20000000    00000218     UNINITIALIZED
                  20000000    000000f0     rtsv7M4_T_le_v4SPD16_eabi.lib : defs.c.obj (.data:_ftable)
                  200000f0    00000078                                   : host_device.c.obj (.data:_device)
                  20000168    00000050                                   : host_device.c.obj (.data:_stream)
                  200001b8    00000028     os.obj (.data:os_normal_task_count)
                  200001e0    00000010     rtsv7M4_T_le_v4SPD16_eabi.lib : defs.c.obj (.data)
                  200001f0    0000000c                                   : exit.c.obj (.data:$O1$$)
                  200001fc    00000008                                   : _lock.c.obj (.data:$O1$$)
                  20000204    00000008                                   : memory.c.obj (.data:$O1$$)
                  2000020c    00000005     os.obj (.data)
                  20000211    00000003     --HOLE--
                  20000214    00000004     rtsv7M4_T_le_v4SPD16_eabi.lib : errno.c.obj (.data)

.stack     0    20000218    00000200     UNINITIALIZED
                  20000218    00000004     rtsv7M4_T_le_v4SPD16_eabi.lib : boot_cortex_m.c.obj (.stack)
                  2000021c    000001fc     --HOLE--

.bss       0    20000418    000001de     UNINITIALIZED
                  20000418    00000120     rtsv7M4_T_le_v4SPD16_eabi.lib : trgmsg.c.obj (.bss:_CIOBUF_)
                  20000538    000000a0     (.common:__TI_tmpnams)
                  200005d8    0000000c     (.common:i2c_config)
                  200005e4    00000008     (.common:parmbuf)
                  200005ec    00000004     (.common:global_trigger)
                  200005f0    00000004     (.common:oscounterincrement_1ms)
                  200005f4    00000002     (.common:task_mask_p1)

.sysmem    0    200005f8    00000010     UNINITIALIZED
                  200005f8    00000010     rtsv7M4_T_le_v4SPD16_eabi.lib : memory.c.obj (.sysmem)

MODULE SUMMARY

       Module                         code    ro data   rw data
       ------                         ----    -------   -------
    ./
       tm4c123gh6pm_startup_ccs.obj   12      620       0      
       main.obj                       74      0         0      
    +--+------------------------------+-------+---------+---------+
       Total:                         86      620       0      
                                                               
    ./DATA_CONST/
       constdata_gpioconfig.obj       0       370       0      
    +--+------------------------------+-------+---------+---------+
       Total:                         0       370       0      
                                                               
    ./OSFILES/
       os.obj                         388     40        55     
    +--+------------------------------+-------+---------+---------+
       Total:                         388     40        55     
                                                               
    ./SOURCE/
       sys_init.obj                   1164    0         0      
       exception_handlers.obj         38      0         0      
    +--+------------------------------+-------+---------+---------+
       Total:                         1202    0         0      
                                                               
    ./driver_libraries/
       i2c.obj                        690     128       12     
       pwm_timer_lib.obj              108     0         0      
    +--+------------------------------+-------+---------+---------+
       Total:                         798     128       12     
                                                               
    /home/satish/ti/ccs920/ccs/tools/compiler/ti-cgt-arm_18.12.3.LTS/lib/rtsv7M4_T_le_v4SPD16_eabi.lib
       _printfi.c.obj                 4851    0         0      
       memory.c.obj                   676     0         8      
       fd_add_t2.asm.obj              438     0         0      
       defs.c.obj                     0       0         416    
       trgmsg.c.obj                   108     0         288    
       fd_div_t2.asm.obj              310     0         0      
       fputs.c.obj                    276     0         0      
       s_scalbn.c.obj                 272     0         0      
       fd_cmp_t2.asm.obj              268     0         0      
       ctype.c.obj                    0       257       0      
       fd_mul_t2.asm.obj              252     0         0      
       setvbuf.c.obj                  220     0         0      
       host_device.c.obj              0       0         200    
       memcpy_t2.asm.obj              156     0         0      
       ull_div_t2.asm.obj             150     0         0      
       fputc.c.obj                    140     0         0      
       memset_t2.asm.obj              122     0         0      
       fclose.c.obj                   116     0         0      
       getdevice.c.obj                116     0         0      
       printf.c.obj                   112     0         0      
       hostrename.c.obj               108     0         0      
       copy_decompress_lzss.c.obj     104     0         0      
       hostlseek.c.obj                104     0         0      
       hostopen.c.obj                 96      0         8      
       fseek.c.obj                    100     0         0      
       s_frexp.c.obj                  100     0         0      
       _io_perm.c.obj                 98      0         0      
       close.c.obj                    92      0         0      
       exit.c.obj                     76      0         12     
       hostread.c.obj                 88      0         0      
       hostwrite.c.obj                88      0         0      
       ltoa.c.obj                     84      0         0      
       atoi.c.obj                     76      0         0      
       fflush.c.obj                   76      0         0      
       fd_toi_t2.asm.obj              72      0         0      
       autoinit.c.obj                 68      0         0      
       hostclose.c.obj                68      0         0      
       hostunlink.c.obj               68      0         0      
       strncpy.c.obj                  54      0         0      
       boot_cortex_m.c.obj            52      0         0      
       fopen.c.obj                    52      0         0      
       i_tofd_t2.asm.obj              46      0         0      
       unlink.c.obj                   44      0         0      
       lseek.c.obj                    40      0         0      
       write.c.obj                    40      0         0      
       memchr.c.obj                   32      0         0      
       copy_zero_init.c.obj           28      0         0      
       memccpy.c.obj                  28      0         0      
       s_copysign.c.obj               26      0         0      
       strcmp.c.obj                   24      0         0      
       strchr.c.obj                   22      0         0      
       strcpy.c.obj                   20      0         0      
       strlen.c.obj                   20      0         0      
       wcslen.c.obj                   18      0         0      
       copy_decompress_none.c.obj     14      0         0      
       errno.c.obj                    8       0         4      
       _lock.c.obj                    2       0         8      
       pre_init.c.obj                 4       0         0      
       div0.asm.obj                   2       0         0      
    +--+------------------------------+-------+---------+---------+
       Total:                         10725   257       944    
                                                               
       Heap:                          0       0         16     
       Stack:                         0       0         512    
       Linker Generated:              0       144       0      
    +--+------------------------------+-------+---------+---------+
       Grand Total:                   13199   1559      1539   


LINKER GENERATED COPY TABLES

__TI_cinit_table @ 000039a8 records: 2, size/record: 8, table size: 16
	.data: load addr=00003928, load size=0000006c bytes, run addr=20000000, run size=00000218 bytes, compression=lzss
	.bss: load addr=000039a0, load size=00000008 bytes, run addr=20000418, run size=000001de bytes, compression=zero_init


LINKER GENERATED HANDLER TABLE

__TI_handler_table @ 00003994 records: 3, size/record: 4, table size: 12
	index: 0, handler: __TI_decompress_lzss
	index: 1, handler: __TI_decompress_none
	index: 2, handler: __TI_zero_init


GLOBAL SYMBOLS: SORTED ALPHABETICALLY BY Name 

address   name                           
-------   ----                           
00003609  C$$EXIT                        
000032b7  C$$IO$$                        
000030fd  HOSTclose                      
00002b09  HOSTlseek                      
00002d6d  HOSTopen                       
00002e29  HOSTread                       
00002a31  HOSTrename                     
00003141  HOSTunlink                     
00002e81  HOSTwrite                      
000035e1  ResetISR                       
20000418  __CIOBUF_                      
20000418  __STACK_END                    
00000200  __STACK_SIZE                   
20000418  __STACK_TOP                    
00000010  __SYSMEM_SIZE                  
000039a8  __TI_CINIT_Base                
000039b8  __TI_CINIT_Limit               
00003994  __TI_Handler_Table_Base        
000039a0  __TI_Handler_Table_Limit       
00003185  __TI_auto_init_nobinit_nopinit 
000032f9  __TI_cleanup                   
200001f0  __TI_cleanup_ptr               
0000294d  __TI_closefile                 
00002b71  __TI_decompress_lzss           
000035c5  __TI_decompress_none           
00002fd5  __TI_doflush                   
200001f4  __TI_dtors_ptr                 
200001f8  __TI_enable_exit_profile_output
200001e0  __TI_ft_end                    
ffffffff  __TI_pprof_out_hndl            
0000026d  __TI_printfi                   
ffffffff  __TI_prof_data_size            
ffffffff  __TI_prof_data_start           
0000332d  __TI_readmsg                   
00000000  __TI_static_base__             
20000538  __TI_tmpnams                   
00003289  __TI_writemsg                  
00002d09  __TI_wrt_ok                    
000034df  __TI_zero_init_nomemset        
00002749  __aeabi_cdcmpeq                
00002749  __aeabi_cdcmple                
000027cf  __aeabi_cdrcmple               
000030b5  __aeabi_d2iz                   
00001837  __aeabi_dadd                   
00001ca5  __aeabi_ddiv                   
00002125  __aeabi_dmul                   
0000182d  __aeabi_dsub                   
000035ed  __aeabi_errno_addr             
000033c5  __aeabi_i2d                    
000019e3  __aeabi_idiv0                  
000019e3  __aeabi_ldiv0                  
000028d1  __aeabi_memclr                 
000028d1  __aeabi_memclr4                
000028d1  __aeabi_memclr8                
0000258b  __aeabi_memcpy                 
0000258b  __aeabi_memcpy4                
0000258b  __aeabi_memcpy8                
000028d3  __aeabi_memset                 
000028d3  __aeabi_memset4                
000028d3  __aeabi_memset8                
200001ec  __aeabi_stderr                 
200001e4  __aeabi_stdin                  
200001e8  __aeabi_stdout                 
00002627  __aeabi_uldivmod               
ffffffff  __binit__                      
ffffffff  __c_args__                     
UNDEFED   __mpu_init                     
20000218  __stack                        
00003361  _c_int00_noargs                
0000377e  _ctypes_                       
200000f0  _device                        
20000000  _ftable                        
200001fc  _lock                          
00000cbb  _nop                           
20000168  _stream                        
200005f8  _sys_memory                    
UNDEFED   _system_post_cinit             
00003605  _system_pre_init               
20000200  _unlock                        
00003609  abort                          
00002221  aligned_alloc                  
00003021  atoi                           
ffffffff  binit                          
000035b7  calculate_MTPR                 
00002dcd  close                          
00003535  copysign                       
00003535  copysignl                      
2000020c  counter_lock                   
00003499  disable_interrupts             
0000349d  enable_interrupts              
20000214  errno                          
0000306d  exit                           
00003395  finddevice                     
000026bd  fputc                          
00001f01  fputs                          
00002315  free                           
00002c41  frexp                          
00002c41  frexpl                         
00002ca5  fseek                          
00000000  g_pfnVectors                   
000031c9  getdevice                      
200005ec  global_trigger                 
0000360c  gpio_pin_spec                  
200005d8  i2c_config                     
000034a1  i2c_exception_handler          
00000d5b  initilize_dma                  
00000d21  initilize_gpio                 
00001341  initilize_i2c                  
00001149  initilize_i2c_structure        
00000d5d  initilize_pwm                  
00000cbd  initilize_rcc_registers        
00000d5f  initilizea2d                   
00001169  initilizei2cmodulemasterconfig 
00001329  initilizei2cmoduleslaveconfig  
00002a9d  intilize_general_purpose_timer 
00000cf1  intilize_rcc2_registers        
00002015  ldexp                          
00002015  ldexpl                         
00003449  lseek                          
00002f2f  ltoa                           
000035d3  main                           
000035f5  malloc                         
00002221  memalign                       
00003519  memccpy                        
000034bf  memchr                         
0000258b  memcpy                         
000028d9  memset                         
200001b8  os_normal_task_count           
0000324d  os_tick_reset                  
200005f0  oscounterincrement_1ms         
200005e4  parmbuf                        
000010d5  powerdown_sequence             
20000210  prev                           
00002bd9  printf                         
000026bd  putc                           
000033f5  remove                         
00002015  scalbn                         
00002015  scalbnl                        
00003900  sch1                           
00001b15  set_maxtaskmask                
000023fd  setvbuf                        
000019e5  start_os                       
00002ad1  starttimer                     
00003567  strchr                         
0000354f  strcmp                         
0000357d  strcpy                         
00003591  strlen                         
000032c1  strncpy                        
00000d61  sys_init                       
00000d7d  system_clkregister_initilize   
00001b45  system_register_initilize      
00000d85  systick_initlize               
00001af7  task_100ms                     
00001abb  task_10ms                      
00001a85  task_1ms                       
00001ad9  task_20ms                      
00001a9d  task_5ms                       
200005f4  task_mask_p1                   
00003880  tbl                            
00002adf  timeout_reached                
000033f5  unlink                         
00000d1f  unlock_portf                   
000035a5  wcslen                         
00003471  write                          


GLOBAL SYMBOLS: SORTED BY Symbol Address 

address   name                           
-------   ----                           
00000000  __TI_static_base__             
00000000  g_pfnVectors                   
00000010  __SYSMEM_SIZE                  
00000200  __STACK_SIZE                   
0000026d  __TI_printfi                   
00000cbb  _nop                           
00000cbd  initilize_rcc_registers        
00000cf1  intilize_rcc2_registers        
00000d1f  unlock_portf                   
00000d21  initilize_gpio                 
00000d5b  initilize_dma                  
00000d5d  initilize_pwm                  
00000d5f  initilizea2d                   
00000d61  sys_init                       
00000d7d  system_clkregister_initilize   
00000d85  systick_initlize               
000010d5  powerdown_sequence             
00001149  initilize_i2c_structure        
00001169  initilizei2cmodulemasterconfig 
00001329  initilizei2cmoduleslaveconfig  
00001341  initilize_i2c                  
0000182d  __aeabi_dsub                   
00001837  __aeabi_dadd                   
000019e3  __aeabi_idiv0                  
000019e3  __aeabi_ldiv0                  
000019e5  start_os                       
00001a85  task_1ms                       
00001a9d  task_5ms                       
00001abb  task_10ms                      
00001ad9  task_20ms                      
00001af7  task_100ms                     
00001b15  set_maxtaskmask                
00001b45  system_register_initilize      
00001ca5  __aeabi_ddiv                   
00001f01  fputs                          
00002015  ldexp                          
00002015  ldexpl                         
00002015  scalbn                         
00002015  scalbnl                        
00002125  __aeabi_dmul                   
00002221  aligned_alloc                  
00002221  memalign                       
00002315  free                           
000023fd  setvbuf                        
0000258b  __aeabi_memcpy                 
0000258b  __aeabi_memcpy4                
0000258b  __aeabi_memcpy8                
0000258b  memcpy                         
00002627  __aeabi_uldivmod               
000026bd  fputc                          
000026bd  putc                           
00002749  __aeabi_cdcmpeq                
00002749  __aeabi_cdcmple                
000027cf  __aeabi_cdrcmple               
000028d1  __aeabi_memclr                 
000028d1  __aeabi_memclr4                
000028d1  __aeabi_memclr8                
000028d3  __aeabi_memset                 
000028d3  __aeabi_memset4                
000028d3  __aeabi_memset8                
000028d9  memset                         
0000294d  __TI_closefile                 
00002a31  HOSTrename                     
00002a9d  intilize_general_purpose_timer 
00002ad1  starttimer                     
00002adf  timeout_reached                
00002b09  HOSTlseek                      
00002b71  __TI_decompress_lzss           
00002bd9  printf                         
00002c41  frexp                          
00002c41  frexpl                         
00002ca5  fseek                          
00002d09  __TI_wrt_ok                    
00002d6d  HOSTopen                       
00002dcd  close                          
00002e29  HOSTread                       
00002e81  HOSTwrite                      
00002f2f  ltoa                           
00002fd5  __TI_doflush                   
00003021  atoi                           
0000306d  exit                           
000030b5  __aeabi_d2iz                   
000030fd  HOSTclose                      
00003141  HOSTunlink                     
00003185  __TI_auto_init_nobinit_nopinit 
000031c9  getdevice                      
0000324d  os_tick_reset                  
00003289  __TI_writemsg                  
000032b7  C$$IO$$                        
000032c1  strncpy                        
000032f9  __TI_cleanup                   
0000332d  __TI_readmsg                   
00003361  _c_int00_noargs                
00003395  finddevice                     
000033c5  __aeabi_i2d                    
000033f5  remove                         
000033f5  unlink                         
00003449  lseek                          
00003471  write                          
00003499  disable_interrupts             
0000349d  enable_interrupts              
000034a1  i2c_exception_handler          
000034bf  memchr                         
000034df  __TI_zero_init_nomemset        
00003519  memccpy                        
00003535  copysign                       
00003535  copysignl                      
0000354f  strcmp                         
00003567  strchr                         
0000357d  strcpy                         
00003591  strlen                         
000035a5  wcslen                         
000035b7  calculate_MTPR                 
000035c5  __TI_decompress_none           
000035d3  main                           
000035e1  ResetISR                       
000035ed  __aeabi_errno_addr             
000035f5  malloc                         
00003605  _system_pre_init               
00003609  C$$EXIT                        
00003609  abort                          
0000360c  gpio_pin_spec                  
0000377e  _ctypes_                       
00003880  tbl                            
00003900  sch1                           
00003994  __TI_Handler_Table_Base        
000039a0  __TI_Handler_Table_Limit       
000039a8  __TI_CINIT_Base                
000039b8  __TI_CINIT_Limit               
20000000  _ftable                        
200000f0  _device                        
20000168  _stream                        
200001b8  os_normal_task_count           
200001e0  __TI_ft_end                    
200001e4  __aeabi_stdin                  
200001e8  __aeabi_stdout                 
200001ec  __aeabi_stderr                 
200001f0  __TI_cleanup_ptr               
200001f4  __TI_dtors_ptr                 
200001f8  __TI_enable_exit_profile_output
200001fc  _lock                          
20000200  _unlock                        
2000020c  counter_lock                   
20000210  prev                           
20000214  errno                          
20000218  __stack                        
20000418  __CIOBUF_                      
20000418  __STACK_END                    
20000418  __STACK_TOP                    
20000538  __TI_tmpnams                   
200005d8  i2c_config                     
200005e4  parmbuf                        
200005ec  global_trigger                 
200005f0  oscounterincrement_1ms         
200005f4  task_mask_p1                   
200005f8  _sys_memory                    
ffffffff  __TI_pprof_out_hndl            
ffffffff  __TI_prof_data_size            
ffffffff  __TI_prof_data_start           
ffffffff  __binit__                      
ffffffff  __c_args__                     
ffffffff  binit                          
UNDEFED   __mpu_init                     
UNDEFED   _system_post_cinit             

[164 symbols]
